; Function Attrs: mustprogress uwtable
define noalias noundef ptr @_ZN4lean18io_result_mk_errorERKNSt7__cxx1112basic_stringIcSt11char_traitsIcESaIcEEE(ptr noundef nonnull align 8 dereferenceable(32) %0) local_unnamed_addr #0 {
  %2 = tail call noundef ptr @_ZN4lean9mk_stringERKNSt7__cxx1112basic_stringIcSt11char_traitsIcESaIcEEE(ptr noundef nonnull align 8 dereferenceable(32) %0)
  %3 = tail call ptr @lean_mk_io_user_error(ptr noundef %2)
  tail call void @lean_inc_heartbeat()
  %4 = tail call noalias ptr @mi_malloc_small(i64 noundef 24) #27
  %5 = icmp eq ptr %4, null
  br i1 %5, label %6, label %_ZN4lean18io_result_mk_errorEP11lean_object.exit

6:                                                ; preds = %1
  tail call void @lean_internal_panic_out_of_memory() #28
  unreachable

_ZN4lean18io_result_mk_errorEP11lean_object.exit: ; preds = %1
  %7 = getelementptr inbounds nuw i8, ptr %4, i64 4
  store i32 1, ptr %4, align 4, !tbaa !7
  store i32 16908312, ptr %7, align 4
  %8 = getelementptr inbounds nuw i8, ptr %4, i64 8
  store ptr %3, ptr %8, align 8, !tbaa !3
  %9 = getelementptr inbounds nuw i8, ptr %4, i64 16
  store ptr inttoptr (i64 1 to ptr), ptr %9, align 8, !tbaa !3
  ret ptr %4
}